; Function Attrs: mustprogress uwtable
define internal noundef i32 @_ZL14rescan_free_cbjyyjPv(i32 %0, i64 %1, i64 %2, i32 %3, ptr noundef captures(none) %4) #3 personality ptr @__gxx_personality_v0 {
  %6 = alloca i32, align 4
  %7 = alloca %"class.testing::AssertionResult", align 8
  %8 = alloca i32, align 4
  %9 = alloca %"class.testing::Message", align 8
  %10 = alloca %"class.testing::internal::AssertHelper", align 8
  %11 = getelementptr inbounds nuw i8, ptr %4, i64 16
  %12 = load i64, ptr %11, align 8
  %13 = add i64 %12, 1
  store i64 %13, ptr %11, align 8
  call void @llvm.lifetime.start.p0(i64 4, ptr nonnull %6) #18
  %14 = getelementptr inbounds nuw i8, ptr %4, i64 8
  %15 = load ptr, ptr %14, align 8
  %16 = tail call i32 @hs_free_scratch(ptr noundef %15)
  store i32 %16, ptr %6, align 4
  call void @llvm.lifetime.start.p0(i64 16, ptr nonnull %7) #18
  call void @llvm.lifetime.start.p0(i64 4, ptr nonnull %8) #18
  store i32 -10, ptr %8, align 4
  call void @_ZN7testing8internal11CmpHelperEQIiiEENS_15AssertionResultEPKcS4_RKT_RKT0_(ptr dead_on_unwind nonnull writable sret(%"class.testing::AssertionResult") align 8 %7, ptr noundef nonnull @.str.42, ptr noundef nonnull @.str.1, ptr noundef nonnull align 4 dereferenceable(4) %8, ptr noundef nonnull align 4 dereferenceable(4) %6)
  call void @llvm.lifetime.end.p0(i64 4, ptr nonnull %8) #18
  %17 = load i8, ptr %7, align 8, !range !5, !noundef !6
  %18 = trunc nuw i8 %17 to i1
  br i1 %18, label %49, label %19

19:                                               ; preds = %5
  call void @llvm.lifetime.start.p0(i64 8, ptr nonnull %9) #18
  invoke void @_ZN7testing7MessageC1Ev(ptr noundef nonnull align 8 dereferenceable(8) %9)
          to label %20 unwind label %41

20:                                               ; preds = %19
  call void @llvm.lifetime.start.p0(i64 8, ptr nonnull %10) #18
  %21 = getelementptr inbounds nuw i8, ptr %7, i64 8
  %22 = load ptr, ptr %21, align 8
  %.not.i.i = icmp eq ptr %22, null
  br i1 %.not.i.i, label %_ZNK7testing15AssertionResult15failure_messageEv.exit, label %23

23:                                               ; preds = %20
  %24 = load ptr, ptr %22, align 8
  br label %_ZNK7testing15AssertionResult15failure_messageEv.exit

_ZNK7testing15AssertionResult15failure_messageEv.exit: ; preds = %23, %20
  %25 = phi ptr [ %24, %23 ], [ @.str.22, %20 ]
  invoke void @_ZN7testing8internal12AssertHelperC1ENS_14TestPartResult4TypeEPKciS5_(ptr noundef nonnull align 8 dereferenceable(8) %10, i32 noundef 1, ptr noundef nonnull @.str.2, i32 noundef 258, ptr noundef %25)
          to label %26 unwind label %43

26:                                               ; preds = %_ZNK7testing15AssertionResult15failure_messageEv.exit
  invoke void @_ZNK7testing8internal12AssertHelperaSERKNS_7MessageE(ptr noundef nonnull align 8 dereferenceable(8) %10, ptr noundef nonnull align 8 dereferenceable(8) %9)
          to label %27 unwind label %45

27:                                               ; preds = %26
  call void @_ZN7testing8internal12AssertHelperD1Ev(ptr noundef nonnull align 8 dereferenceable(8) %10) #18
  call void @llvm.lifetime.end.p0(i64 8, ptr nonnull %10) #18
  %28 = load ptr, ptr %9, align 8
  %.not.i.i.i = icmp eq ptr %28, null
  br i1 %.not.i.i.i, label %_ZN7testing7MessageD2Ev.exit, label %29

29:                                               ; preds = %27
  %30 = invoke noundef zeroext i1 @_ZN7testing8internal6IsTrueEb(i1 noundef zeroext true)
          to label %.noexc.i.i unwind label %38

.noexc.i.i:                                       ; preds = %29
  br i1 %30, label %31, label %_ZN7testing7MessageD2Ev.exit

31:                                               ; preds = %.noexc.i.i
  %32 = load ptr, ptr %9, align 8
  %33 = icmp eq ptr %32, null
  br i1 %33, label %_ZN7testing7MessageD2Ev.exit, label %34

34:                                               ; preds = %31
  %35 = load ptr, ptr %32, align 8
  %36 = getelementptr inbounds nuw i8, ptr %35, i64 8
  %37 = load ptr, ptr %36, align 8
  call void %37(ptr noundef nonnull align 8 dereferenceable(128) %32) #18
  br label %_ZN7testing7MessageD2Ev.exit

38:                                               ; preds = %29
  %39 = landingpad { ptr, i32 }
          catch ptr null
  %40 = extractvalue { ptr, i32 } %39, 0
  call void @__clang_call_terminate(ptr %40) #19
  unreachable

_ZN7testing7MessageD2Ev.exit:                     ; preds = %.noexc.i.i, %31, %34, %27
  call void @llvm.lifetime.end.p0(i64 8, ptr nonnull %9) #18
  br label %49

41:                                               ; preds = %19
  %42 = landingpad { ptr, i32 }
          cleanup
  br label %48

43:                                               ; preds = %_ZNK7testing15AssertionResult15failure_messageEv.exit
  %44 = landingpad { ptr, i32 }
          cleanup
  br label %47

45:                                               ; preds = %26
  %46 = landingpad { ptr, i32 }
          cleanup
  call void @_ZN7testing8internal12AssertHelperD1Ev(ptr noundef nonnull align 8 dereferenceable(8) %10) #18
  br label %47

47:                                               ; preds = %45, %43
  %.pn = phi { ptr, i32 } [ %46, %45 ], [ %44, %43 ]
  call void @llvm.lifetime.end.p0(i64 8, ptr nonnull %10) #18
  call void @_ZN7testing7MessageD2Ev(ptr noundef nonnull align 8 dereferenceable(8) %9) #18
  br label %48

48:                                               ; preds = %47, %41
  %.pn.pn = phi { ptr, i32 } [ %.pn, %47 ], [ %42, %41 ]
  call void @llvm.lifetime.end.p0(i64 8, ptr nonnull %9) #18
  call void @_ZN7testing15AssertionResultD2Ev(ptr noundef nonnull align 8 dereferenceable(16) %7) #18
  call void @llvm.lifetime.end.p0(i64 16, ptr nonnull %7) #18
  call void @llvm.lifetime.end.p0(i64 4, ptr nonnull %6) #18
  resume { ptr, i32 } %.pn.pn

49:                                               ; preds = %5, %_ZN7testing7MessageD2Ev.exit
  %50 = getelementptr inbounds nuw i8, ptr %7, i64 8
  %51 = load ptr, ptr %50, align 8
  %.not.i.i.i8 = icmp eq ptr %51, null
  br i1 %.not.i.i.i8, label %_ZN7testing15AssertionResultD2Ev.exit, label %52

52:                                               ; preds = %49
  %53 = invoke noundef zeroext i1 @_ZN7testing8internal6IsTrueEb(i1 noundef zeroext true)
          to label %.noexc.i.i9 unwind label %64

.noexc.i.i9:                                      ; preds = %52
  br i1 %53, label %54, label %_ZN7testing15AssertionResultD2Ev.exit

54:                                               ; preds = %.noexc.i.i9
  %55 = load ptr, ptr %50, align 8
  %56 = icmp eq ptr %55, null
  br i1 %56, label %_ZN7testing15AssertionResultD2Ev.exit, label %57

57:                                               ; preds = %54
  %58 = load ptr, ptr %55, align 8
  %59 = getelementptr inbounds nuw i8, ptr %55, i64 16
  %60 = icmp eq ptr %58, %59
  br i1 %60, label %_ZNKSt7__cxx1112basic_stringIcSt11char_traitsIcESaIcEE11_M_is_localEv.exit.thread.i.i.i.i.i, label %_ZNKSt7__cxx1112basic_stringIcSt11char_traitsIcESaIcEE11_M_is_localEv.exit.i.i.i.i.i

_ZNKSt7__cxx1112basic_stringIcSt11char_traitsIcESaIcEE11_M_is_localEv.exit.thread.i.i.i.i.i: ; preds = %57
  %61 = getelementptr inbounds nuw i8, ptr %55, i64 8
  %62 = load i64, ptr %61, align 8
  %63 = icmp ult i64 %62, 16
  call void @llvm.assume(i1 %63)
  br label %_ZNSt7__cxx1112basic_stringIcSt11char_traitsIcESaIcEED2Ev.exit.i.i.i

_ZNKSt7__cxx1112basic_stringIcSt11char_traitsIcESaIcEE11_M_is_localEv.exit.i.i.i.i.i: ; preds = %57
  call void @_ZdlPv(ptr noundef %58) #20
  br label %_ZNSt7__cxx1112basic_stringIcSt11char_traitsIcESaIcEED2Ev.exit.i.i.i

_ZNSt7__cxx1112basic_stringIcSt11char_traitsIcESaIcEED2Ev.exit.i.i.i: ; preds = %_ZNKSt7__cxx1112basic_stringIcSt11char_traitsIcESaIcEE11_M_is_localEv.exit.i.i.i.i.i, %_ZNKSt7__cxx1112basic_stringIcSt11char_traitsIcESaIcEE11_M_is_localEv.exit.thread.i.i.i.i.i
  call void @_ZdlPv(ptr noundef nonnull %55) #20
  br label %_ZN7testing15AssertionResultD2Ev.exit

64:                                               ; preds = %52
  %65 = landingpad { ptr, i32 }
          catch ptr null
  %66 = extractvalue { ptr, i32 } %65, 0
  call void @__clang_call_terminate(ptr %66) #19
  unreachable

_ZN7testing15AssertionResultD2Ev.exit:            ; preds = %.noexc.i.i9, %54, %_ZNSt7__cxx1112basic_stringIcSt11char_traitsIcESaIcEED2Ev.exit.i.i.i, %49
  call void @llvm.lifetime.end.p0(i64 16, ptr nonnull %7) #18
  call void @llvm.lifetime.end.p0(i64 4, ptr nonnull %6) #18
  ret i32 0
}